(lp1
(S'Logistic Regression'
p2
cnumpy.core.multiarray
scalar
p3
(cnumpy
dtype
p4
(S'f8'
I0
I1
tRp5
(I3
S'<'
NNNI-1
I-1
I0
tbS'\x83t\xa5\xedD\x1f\xe6?'
tRp6
tp7
a(S'Linear SVM'
p8
g3
(g5
S'\xe7 \x8a\x98:\xc3\xe4?'
tRp9
tp10
a(S'Gaussian Naive Bayes'
p11
g3
(g5
S'9 \xa9\xac>\t\xc4?'
tRp12
tp13
a.