(lp1
(S'Logistic Regression'
p2
cnumpy.core.multiarray
scalar
p3
(cnumpy
dtype
p4
(S'f8'
I0
I1
tRp5
(I3
S'<'
NNNI-1
I-1
I0
tbS'u,{B\xf5\x1c\xe9?'
tRp6
tp7
a(S'Linear SVM'
p8
g3
(g5
S')p\x05\x08_\xdf\xe7?'
tRp9
tp10
a(S'Gaussian Naive Bayes'
p11
g3
(g5
S'\xa9\x06\x9d\x07\xd8Q\xc2?'
tRp12
tp13
a.