(lp1
(S'Logistic Regression'
p2
cnumpy.core.multiarray
scalar
p3
(cnumpy
dtype
p4
(S'f8'
I0
I1
tRp5
(I3
S'<'
NNNI-1
I-1
I0
tbS'v\rg>\xaf\x95\xe9?'
tRp6
tp7
a(S'Linear SVM'
p8
g3
(g5
S'\xec(\xe9w\n\x89\xe8?'
tRp9
tp10
a(S'Gaussian Naive Bayes'
p11
g3
(g5
S'u,{B\xf5\x1c\xc1?'
tRp12
tp13
a.