(lp1
(S'Logistic Regression'
p2
cnumpy.core.multiarray
scalar
p3
(cnumpy
dtype
p4
(S'f8'
I0
I1
tRp5
(I3
S'<'
NNNI-1
I-1
I0
tbS'\x1b\xce|^+\x13\xe9?'
tRp6
tp7
a(S'Linear SVM'
p8
g3
(g5
S'\x82f\x8a\xf2\x98\xc1\xe8?'
tRp9
tp10
a(S'Gaussian Naive Bayes'
p11
g3
(g5
S'P\x10\x18\x1d\x9eo\xb1?'
tRp12
tp13
a.