(lp1
(S'Logistic Regression'
p2
cnumpy.core.multiarray
scalar
p3
(cnumpy
dtype
p4
(S'f8'
I0
I1
tRp5
(I3
S'<'
NNNI-1
I-1
I0
tbS'@qm\x81Xo\xe7?'
tRp6
tp7
a(S'Linear SVM'
p8
g3
(g5
S'\x14^\xa4\x85\xcb%\xe6?'
tRp9
tp10
a(S'Gaussian Naive Bayes'
p11
g3
(g5
S'\xa6t\xd2\x1cD\x11\xc3?'
tRp12
tp13
a.