(lp1
(S'Logistic Regression'
p2
cnumpy.core.multiarray
scalar
p3
(cnumpy
dtype
p4
(S'f8'
I0
I1
tRp5
(I3
S'<'
NNNI-1
I-1
I0
tbS'\xb9\x97,\xa8q\xf4\xe6?'
tRp6
tp7
a(S'Linear SVM'
p8
g3
(g5
S's\x10EL\x9da\xe6?'
tRp9
tp10
a(S'Gaussian Naive Bayes'
p11
g3
(g5
S'S\x94\xc7\x0c\x86R\xc3?'
tRp12
tp13
a.