(lp1
(S'Logistic Regression'
p2
cnumpy.core.multiarray
scalar
p3
(cnumpy
dtype
p4
(S'f8'
I0
I1
tRp5
(I3
S'<'
NNNI-1
I-1
I0
tbS'\x0c\xf1\xa9\xbaY\x04\xe8?'
tRp6
tp7
a(S'Linear SVM'
p8
g3
(g5
S'_9.\xc4\xa7\xea\xe6?'
tRp9
tp10
a(S'Gaussian Naive Bayes'
p11
g3
(g5
S'i-\xb6\x8c\xef\xba\xc3?'
tRp12
tp13
a.