(lp1
(S'Logistic Regression'
p2
cnumpy.core.multiarray
scalar
p3
(cnumpy
dtype
p4
(S'f8'
I0
I1
tRp5
(I3
S'<'
NNNI-1
I-1
I0
tbS'y\x9f1)C\xd6\xe8?'
tRp6
tp7
a(S'Linear SVM'
p8
g3
(g5
S'\xc1\xf6\x0bx7\xb8\xe7?'
tRp9
tp10
a(S'Gaussian Naive Bayes'
p11
g3
(g5
S' \x03\x0b=\xed\xbd\xc1?'
tRp12
tp13
a.