(lp1
(S'Logistic Regression'
p2
cnumpy.core.multiarray
scalar
p3
(cnumpy
dtype
p4
(S'f8'
I0
I1
tRp5
(I3
S'<'
NNNI-1
I-1
I0
tbS'E\x1fnbDk\xe9?'
tRp6
tp7
a(S'Linear SVM'
p8
g3
(g5
S'\xac\xb7{\xf6\xb1\x19\xe9?'
tRp9
tp10
a(S'Gaussian Naive Bayes'
p11
g3
(g5
S'\x98,\xa8q\xf4\x0e\xb6?'
tRp12
tp13
a.