(lp1
(S'Logistic Regression'
p2
cnumpy.core.multiarray
scalar
p3
(cnumpy
dtype
p4
(S'f8'
I0
I1
tRp5
(I3
S'<'
NNNI-1
I-1
I0
tbS'M\x05\xdb/\xe0\xdd\xe8?'
tRp6
tp7
a(S'Linear SVM'
p8
g3
(g5
S'\xaa\x14\xb8\x02\x84\xaf\xe7?'
tRp9
tp10
a(S'Gaussian Naive Bayes'
p11
g3
(g5
S'\x9e\x15\xf3L~M\xc2?'
tRp12
tp13
a.