(lp1
(S'Logistic Regression'
p2
cnumpy.core.multiarray
scalar
p3
(cnumpy
dtype
p4
(S'f8'
I0
I1
tRp5
(I3
S'<'
NNNI-1
I-1
I0
tbS'\x94\x13P\x89\x8a\x1f\xe8?'
tRp6
tp7
a(S'Linear SVM'
p8
g3
(g5
S'\x94\x9a\xdd\x86`\xce\xe6?'
tRp9
tp10
a(S'Gaussian Naive Bayes'
p11
g3
(g5
S'r\xd5\xfaQ\xff\x1e\xc4?'
tRp12
tp13
a.