(lp1
(I300
(lp2
(S'Logistic Regression'
p3
cnumpy.core.multiarray
scalar
p4
(cnumpy
dtype
p5
(S'f8'
I0
I1
tRp6
(I3
S'<'
NNNI-1
I-1
I0
tbS'\x03\x84\xaf\xef\xe7\xe2\xe1?'
tRp7
tp8
a(S'Linear SVM'
p9
g4
(g6
S'\xe8\xb52\x91\xbc\xcf\xe0?'
tRp10
tp11
a(S'Gaussian Naive Bayes'
p12
g4
(g6
S'@\x9e\x9c\x80JT\xcc?'
tRp13
tp14
atp15
a(I400
(lp16
(g3
g4
(g6
S'\xa7\xdcK\x16\xd48\xe2?'
tRp17
tp18
a(g9
g4
(g6
S'\x8eW4\xad\xf2\xc5\xe0?'
tRp19
tp20
a(g12
g4
(g6
S'\xeeqNmT)\xd0?'
tRp21
tp22
atp23
a(I500
(lp24
(g3
g4
(g6
S'KT\xfc@\x06\x16\xe2?'
tRp25
tp26
a(g9
g4
(g6
S'\xeeqNmT)\xe0?'
tRp27
tp28
a(g12
g4
(g6
S'\xf1|\x8bZ\x12\xbb\xd0?'
tRp29
tp30
atp31
a.