(lp1
(lp2
I30000
a(I1000
cnumpy.core.multiarray
scalar
p3
(cnumpy
dtype
p4
(S'f8'
I0
I1
tRp5
(I3
S'<'
NNNI-1
I-1
I0
tbS'\xd0\xb7\xa8\xa5\xb5\x94\xfb?'
tRp6
g3
(g5
S'E\x01\xa4\r\xc1\x9c\xe5?'
tRp7
tp8
aa.