(lp1
(lp2
I500
a(I1000
cnumpy.core.multiarray
scalar
p3
(cnumpy
dtype
p4
(S'f8'
I0
I1
tRp5
(I3
S'<'
NNNI-1
I-1
I0
tbS'1W\xbc\x04|\xae\x01@'
tRp6
g3
(g5
S'$v\xc1#,\x12\xdf?'
tRp7
tp8
a(I8066
g3
(g5
S'mT)\x90 \x00\x08@'
tRp9
g3
(g5
S'\xb4%\xc0\x905B\xab?'
tRp10
tp11
aa.